target datalayout = "e-m:e-p270:32:32-p271:32:32-p272:64:64-i64:64-i128:128-f80:128-n8:16:32:64-S128"
target triple = "x86_64-pc-linux-gnu"

%struct.htbl_t = type { i64, i64, i64, i64 }

@H5PT_ptable_id_type = internal global i32 -2, align 4

; Function Attrs: nounwind uwtable
define i32 @H5PTis_varlen(i64 noundef %0) #0 {
  %2 = alloca i32, align 4
  %3 = alloca i64, align 8
  %4 = alloca i32, align 4
  %5 = alloca ptr, align 8
  %6 = alloca i32, align 4
  store i64 %0, ptr %3, align 8, !tbaa !3
  call void @llvm.lifetime.start.p0(i64 4, ptr %4) #6
  call void @llvm.lifetime.start.p0(i64 8, ptr %5) #6
  %7 = load i64, ptr %3, align 8, !tbaa !3
  %8 = load i32, ptr @H5PT_ptable_id_type, align 4, !tbaa !11
  %9 = call ptr @H5Iobject_verify(i64 noundef %7, i32 noundef %8)
  store ptr %9, ptr %5, align 8, !tbaa !10
  %10 = icmp eq ptr %9, null
  br i1 %10, label %11, label %12

11:                                               ; preds = %1
  br label %24

12:                                               ; preds = %1
  %13 = load ptr, ptr %5, align 8, !tbaa !10
  %14 = getelementptr inbounds nuw %struct.htbl_t, ptr %13, i32 0, i32 1
  %15 = load i64, ptr %14, align 8, !tbaa !15
  %16 = call i32 @H5Tget_class(i64 noundef %15)
  store i32 %16, ptr %4, align 4, !tbaa !11
  %17 = icmp eq i32 %16, -1
  br i1 %17, label %18, label %19

18:                                               ; preds = %12
  br label %24

19:                                               ; preds = %12
  %20 = load i32, ptr %4, align 4, !tbaa !11
  %21 = icmp eq i32 %20, 9
  br i1 %21, label %22, label %23

22:                                               ; preds = %19
  store i32 1, ptr %2, align 4
  store i32 1, ptr %6, align 4
  br label %25

23:                                               ; preds = %19
  store i32 0, ptr %2, align 4
  store i32 1, ptr %6, align 4
  br label %25

24:                                               ; preds = %18, %11
  store i32 -1, ptr %2, align 4
  store i32 1, ptr %6, align 4
  br label %25

25:                                               ; preds = %24, %23, %22
  call void @llvm.lifetime.end.p0(i64 8, ptr %5) #6
  call void @llvm.lifetime.end.p0(i64 4, ptr %4) #6
  %26 = load i32, ptr %2, align 4
  ret i32 %26
}