; Function Attrs: nounwind uwtable
define range(i32 -1, 2) i32 @H5PTis_varlen(i64 noundef %0) local_unnamed_addr #0 {
  %2 = load i32, ptr @H5PT_ptable_id_type, align 4, !tbaa !3
  %3 = tail call ptr @H5Iobject_verify(i64 noundef %0, i32 noundef %2) #7
  %4 = icmp eq ptr %3, null
  br i1 %4, label %9, label %5

5:                                                ; preds = %1
  %6 = getelementptr inbounds nuw i8, ptr %3, i64 8
  %7 = load i64, ptr %6, align 8, !tbaa !16
  %8 = tail call i32 @H5Tget_class(i64 noundef %7) #7
  %switch.selectcmp = icmp eq i32 %8, 9
  %switch.select = zext i1 %switch.selectcmp to i32
  %switch.selectcmp5 = icmp eq i32 %8, -1
  %switch.select6 = select i1 %switch.selectcmp5, i32 -1, i32 %switch.select
  br label %9

9:                                                ; preds = %1, %5
  %.0 = phi i32 [ %switch.select6, %5 ], [ -1, %1 ]
  ret i32 %.0
}